ccopy_reg
_reconstructor
p1
(cdatabase.database_objects
User
p2
c__builtin__
object
p3
NtRp4
(dp5
S'username'
p6
Vfioger
p7
sS'currently_reading'
p8
(NI0
tp9
sS'default_pdf_reader'
p10
NsS'group_policy'
p11
S'RU'
p12
sS'infractions'
p13
(lp14
sS'dob'
p15
cPySide.QtCore
QDate
p16
(I2000
I1
I1
tRp17
sS'reported_books'
p18
(lp19
sS'rented_books'
p20
(lp21
sS'credits'
p22
I300
sS'uploaded_books'
p23
(lp24
sS'password'
p25
Vfioger
p26
sS'email'
p27
Vfioger
p28
sb.