ccopy_reg
_reconstructor
p1
(cdatabase_objects
Users
p2
c__builtin__
object
p3
NtRp4
(dp5
S'username'
p6
S'MD'
p7
sS'currently_reading'
p8
(NI0
tp9
sS'default_pdf_reader'
p10
NsS'group_policy'
p11
S'RU'
p12
sS'infractions'
p13
(lp14
sS'dob'
p15
S'07/30/1993'
p16
sS'age'
p17
I22
sS'reported_books'
p18
(lp19
sS'rented_books'
p20
(lp21
sS'credits'
p22
I30
sS'uploaded_books'
p23
(lp24
g1
(cdatabase_objects
EBooks
p25
g3
NtRp26
(dp27
S'genres'
p28
S'Manga'
p29
sS'current_page'
p30
I0
sS'isbn'
p31
S'1421585642'
p32
sS'book_text'
p33
S'Some text'
p34
sS'checked_out_time'
p35
NsS'author'
p36
S'One'
p37
sS'paused_time'
p38
NsS'price'
p39
S'5'
sS'title'
p40
S'One-Punch Man, Vol. 1'
p41
sS'total_pages'
p42
F1
sS'reports'
p43
(lp44
sS'return_time'
p45
NsS'uploader'
p46
g7
sS'approved'
p47
I00
sbasS'password'
p48
S'mdrizzle'
p49
sS'email'
p50
S'm@mdogy.net'
p51
sb.