ccopy_reg
_reconstructor
p1
(cdatabase.database_objects
User
p2
c__builtin__
object
p3
NtRp4
(dp5
S'username'
p6
Vru
p7
sS'is_blacklisted'
p8
I00
sS'currently_reading'
p9
NsS'default_pdf_reader'
p10
NsS'group_policy'
p11
S'RU'
p12
sS'infractions'
p13
(dp14
sS'dob'
p15
cPySide.QtCore
QDate
p16
(I2000
I1
I1
tRp17
sS'reported_books'
p18
(lp19
sS'rented_books'
p20
(dp21
sS'reviewed_books'
p22
(lp23
sS'credits'
p24
I300
sS'requested_books'
p25
(dp26
sS'uploaded_books'
p27
(lp28
sS'password'
p29
Vpw
p30
sS'email'
p31
Vru@gmail.com
p32
sS'second_pass'
p33
(dp34
sb.