ccopy_reg
_reconstructor
p1
(cdatabase.database_objects
EBooks
p2
c__builtin__
object
p3
NtRp4
(dp5
S'genres'
p6
S'Manga'
p7
sS'current_page'
p8
I0
sS'isbn'
p9
S'1421585642'
p10
sS'checked_out_time'
p11
NsS'author'
p12
S'One'
p13
sS'paused_time'
p14
NsS'price'
p15
S'5'
sS'title'
p16
S'One-Punch Man, Vol. 1'
p17
sS'total_pages'
p18
F1
sS'reports'
p19
(dp20
S'Chris'
p21
S'Copyright Violation: DID YOU TORRENT THIS???'
p22
ssS'return_time'
p23
NsS'book_text'
p24
S'Some text'
p25
sS'approved'
p26
I00
sb.