ccopy_reg
_reconstructor
p1
(cdatabase.database_objects
Users
p2
c__builtin__
object
p3
NtRp4
(dp5
S'username'
p6
S'Chris'
p7
sS'currently_reading'
p8
(NI0
tp9
sS'default_pdf_reader'
p10
NsS'group_policy'
p11
S'RU'
p12
sS'infractions'
p13
(lp14
sS'dob'
p15
S'01/26/1995'
p16
sS'age'
p17
I20
sS'reported_books'
p18
(lp19
sS'rented_books'
p20
(lp21
sS'credits'
p22
I30
sS'uploaded_books'
p23
(lp24
sS'password'
p25
S'passw0rd'
p26
sS'email'
p27
S'cyang001@citymail.cuny.edu'
p28
sb.