ccopy_reg
_reconstructor
p1
(cdatabase.database_objects
Users
p2
c__builtin__
object
p3
NtRp4
(dp5
S'username'
p6
S'md'
p7
sS'group_policy'
p8
S'RU'
p9
sS'infractions'
p10
(lp11
sS'dob'
p12
S'07/30/1993'
p13
sS'age'
p14
I22
sS'reported_books'
p15
(lp16
sS'rented_books'
p17
(lp18
sS'credits'
p19
I30
sS'password'
p20
S'mdrizzle'
p21
sS'email'
p22
S'm@mdogy.net'
p23
sb.