ccopy_reg
_reconstructor
p1
(cdatabase.database_objects
Users
p2
c__builtin__
object
p3
NtRp4
(dp5
S'username'
p6
S'md'
p7
sS'currently_reading'
p8
(NI0
tp9
sS'group_policy'
p10
S'RU'
p11
sS'infractions'
p12
(lp13
sS'dob'
p14
S'07/30/1993'
p15
sS'age'
p16
I22
sS'reported_books'
p17
(lp18
sS'rented_books'
p19
(lp20
sS'credits'
p21
I30
sS'password'
p22
S'mdrizzle'
p23
sS'email'
p24
S'm@mdogy.net'
p25
sb.