ccopy_reg
_reconstructor
p1
(cdatabase.database_objects
Users
p2
c__builtin__
object
p3
NtRp4
(dp5
S'username'
p6
S'md'
p7
sS'currently_reading'
p8
(NI0
tp9
sS'default_pdf_reader'
p10
NsS'group_policy'
p11
S'RU'
p12
sS'infractions'
p13
(lp14
sS'dob'
p15
S'07/30/1993'
p16
sS'age'
p17
I22
sS'reported_books'
p18
(lp19
sS'rented_books'
p20
(lp21
sS'credits'
p22
I30
sS'uploaded_books'
p23
(lp24
g1
(cdatabase.database_objects
EBooks
p25
g3
NtRp26
(dp27
S'genres'
p28
S'Manga'
p29
sS'current_page'
p30
I0
sS'isbn'
p31
S'1421585642'
p32
sS'checked_out_time'
p33
NsS'author'
p34
S'One'
p35
sS'paused_time'
p36
NsS'price'
p37
S'5'
sS'title'
p38
S'One-Punch Man, Vol. 1'
p39
sS'total_pages'
p40
F1
sS'reports'
p41
(dp42
S'Chris'
p43
S'Copyright Violation: DID YOU TORRENT THIS???'
p44
ssS'return_time'
p45
NsS'book_text'
p46
S'Some text'
p47
sS'approved'
p48
I00
sbasS'password'
p49
S'mdrizzle'
p50
sS'email'
p51
S'm@mdogy.net'
p52
sb.