ccopy_reg
_reconstructor
p1
(cdatabase.database_objects
EBook
p2
c__builtin__
object
p3
NtRp4
(dp5
S'rating'
p6
I0
sS'genres'
p7
S'Romance'
p8
sS'current_page'
p9
I0
sS'isbn'
p10
I1000000004
sS'book_text'
p11
S''
sS'checked_out_time'
p12
NsS'author'
p13
S'Author#4'
p14
sS'paused_time'
p15
NsS'price'
p16
I4
sS'title'
p17
S'Cricket(Sports)'
p18
sS'total_pages'
p19
F1
sS'reports'
p20
(lp21
sS'return_time'
p22
NsS'uploader'
p23
S'b'
sS'approved'
p24
I00
sb.