ccopy_reg
_reconstructor
p1
(cdatabase.database_objects
EBook
p2
c__builtin__
object
p3
NtRp4
(dp5
S'rating'
p6
I0
sS'genres'
p7
VHistory
p8
sS'current_page'
p9
I0
sS'isbn'
p10
V123
p11
sS'book_text'
p12
S''
sS'checked_out_time'
p13
NsS'author'
p14
VJohn
p15
sS'paused_time'
p16
NsS'price'
p17
V1
sS'title'
p18
VA Boy
p19
sS'total_pages'
p20
F1
sS'reports'
p21
(lp22
sS'return_time'
p23
NsS'uploader'
p24
g1
(cdatabase.database_objects
User
p25
g3
NtRp26
(dp27
S'username'
p28
Vjess
p29
sS'currently_reading'
p30
(NI0
tp31
sS'default_pdf_reader'
p32
NsS'group_policy'
p33
S'RU'
p34
sS'infractions'
p35
(lp36
sS'dob'
p37
cPySide.QtCore
QDate
p38
(I2000
I1
I1
tRp39
sS'reported_books'
p40
(lp41
sS'rented_books'
p42
(lp43
sS'credits'
p44
I300
sS'uploaded_books'
p45
(lp46
sS'password'
p47
Vjess
p48
sS'email'
p49
Vjess
p50
sbsS'approved'
p51
I00
sb.