ccopy_reg
_reconstructor
p1
(cdatabase.database_objects
EBook
p2
c__builtin__
object
p3
NtRp4
(dp5
S'rating'
p6
I0
sS'genres'
p7
V123
p8
sS'current_page'
p9
I0
sS'isbn'
p10
V123
p11
sS'book_text'
p12
S''
sS'checked_out_time'
p13
NsS'author'
p14
V123
p15
sS'paused_time'
p16
NsS'price'
p17
V10
p18
sS'title'
p19
V123
p20
sS'total_pages'
p21
F1
sS'reports'
p22
(lp23
sS'return_time'
p24
NsS'uploader'
p25
g1
(cdatabase.database_objects
User
p26
g3
NtRp27
(dp28
S'username'
p29
VporrithAccount
p30
sS'currently_reading'
p31
(NI0
tp32
sS'default_pdf_reader'
p33
NsS'group_policy'
p34
S'RU'
p35
sS'infractions'
p36
(lp37
sS'dob'
p38
cPySide.QtCore
QDate
p39
(I2095
I7
I17
tRp40
sS'reported_books'
p41
(lp42
sS'rented_books'
p43
(lp44
sS'credits'
p45
I300
sS'uploaded_books'
p46
(lp47
sS'password'
p48
Vpassword!
p49
sS'email'
p50
Vtest@test.com
p51
sbsS'approved'
p52
I00
sb.