ccopy_reg
_reconstructor
p1
(cdatabase_objects
EBooks
p2
c__builtin__
object
p3
NtRp4
(dp5
S'genres'
p6
S'Manga'
p7
sS'current_page'
p8
I0
sS'isbn'
p9
S'1421585642'
p10
sS'checked_out_time'
p11
NsS'author'
p12
S'One'
p13
sS'paused_time'
p14
NsS'price'
p15
S'5'
sS'title'
p16
S'One-Punch Man, Vol. 1'
p17
sS'total_pages'
p18
F1
sS'reports'
p19
(lp20
g1
(cdatabase_objects
Reports
p21
g3
NtRp22
(dp23
S'comment'
p24
S'DID YOU TORRENT THIS???'
p25
sS'time_stamp'
p26
cdatetime
datetime
p27
(S'\x07\xdf\x0b\x07\x11\x183\x04\x12C'
tRp28
sS'reason'
p29
S'Copyright Violation'
p30
sS'reporter'
p31
g1
(cdatabase_objects
Users
p32
g3
NtRp33
(dp34
S'username'
p35
S'Chris'
p36
sS'currently_reading'
p37
(NI0
tp38
sS'default_pdf_reader'
p39
NsS'group_policy'
p40
S'RU'
p41
sS'infractions'
p42
(lp43
sS'dob'
p44
S'01/26/1995'
p45
sS'age'
p46
I20
sS'reported_books'
p47
(lp48
sS'rented_books'
p49
(lp50
sS'credits'
p51
I30
sS'uploaded_books'
p52
(lp53
sS'password'
p54
S'passw0rd'
p55
sS'email'
p56
S'cyang001@citymail.cuny.edu'
p57
sbsbasS'return_time'
p58
NsS'book_text'
p59
S'Some text'
p60
sS'approved'
p61
I00
sb.