ccopy_reg
_reconstructor
p1
(cdatabase_objects
EBooks
p2
c__builtin__
object
p3
NtRp4
(dp5
S'genres'
p6
S'Manga'
p7
sS'current_page'
p8
I0
sS'isbn'
p9
S'1421585642'
p10
sS'book_text'
p11
S'Some text'
p12
sS'checked_out_time'
p13
NsS'author'
p14
S'One'
p15
sS'paused_time'
p16
NsS'price'
p17
S'5'
sS'title'
p18
S'One-Punch Man, Vol. 1'
p19
sS'total_pages'
p20
F1
sS'reports'
p21
(lp22
g1
(cdatabase_objects
Reports
p23
g3
NtRp24
(dp25
S'comment'
p26
S'DID YOU TORRENT THIS???'
p27
sS'time_stamp'
p28
cdatetime
datetime
p29
(S'\x07\xdf\x0b\x07\x128\x11\n\x06\x94'
tRp30
sS'reason'
p31
S'Copyright Violation'
p32
sS'reporter'
p33
g1
(cdatabase_objects
Users
p34
g3
NtRp35
(dp36
S'username'
p37
S'Chris'
p38
sS'currently_reading'
p39
(NI0
tp40
sS'default_pdf_reader'
p41
NsS'group_policy'
p42
S'RU'
p43
sS'infractions'
p44
(lp45
sS'dob'
p46
S'01/26/1995'
p47
sS'age'
p48
I20
sS'reported_books'
p49
(lp50
sS'rented_books'
p51
(lp52
sS'credits'
p53
I30
sS'uploaded_books'
p54
(lp55
sS'password'
p56
S'passw0rd'
p57
sS'email'
p58
S'cyang001@citymail.cuny.edu'
p59
sbsbasS'return_time'
p60
NsS'uploader'
p61
S'MD'
p62
sS'approved'
p63
I00
sb.